fun:_Unwind_Backtrace=uninstrumented
fun:_Unwind_Backtrace=discard
fun:_Unwind_DeleteException=uninstrumented
fun:_Unwind_DeleteException=discard
fun:_Unwind_FindEnclosingFunction=uninstrumented
fun:_Unwind_FindEnclosingFunction=discard
fun:_Unwind_Find_FDE=uninstrumented
fun:_Unwind_Find_FDE=discard
fun:_Unwind_ForcedUnwind=uninstrumented
fun:_Unwind_ForcedUnwind=discard
fun:_Unwind_GetCFA=uninstrumented
fun:_Unwind_GetCFA=discard
fun:_Unwind_GetDataRelBase=uninstrumented
fun:_Unwind_GetDataRelBase=discard
fun:_Unwind_GetGR=uninstrumented
fun:_Unwind_GetGR=discard
fun:_Unwind_GetIP=uninstrumented
fun:_Unwind_GetIP=discard
fun:_Unwind_GetIPInfo=uninstrumented
fun:_Unwind_GetIPInfo=discard
fun:_Unwind_GetLanguageSpecificData=uninstrumented
fun:_Unwind_GetLanguageSpecificData=discard
fun:_Unwind_GetRegionStart=uninstrumented
fun:_Unwind_GetRegionStart=discard
fun:_Unwind_GetTextRelBase=uninstrumented
fun:_Unwind_GetTextRelBase=discard
fun:_Unwind_RaiseException=uninstrumented
fun:_Unwind_RaiseException=discard
fun:_Unwind_Resume=uninstrumented
fun:_Unwind_Resume=discard
fun:_Unwind_Resume_or_Rethrow=uninstrumented
fun:_Unwind_Resume_or_Rethrow=discard
fun:_Unwind_SetGR=uninstrumented
fun:_Unwind_SetGR=discard
fun:_Unwind_SetIP=uninstrumented
fun:_Unwind_SetIP=discard
fun:_ZN9libunwind10CFI_ParserINS_17LocalAddressSpaceEE17parseInstructionsERS1_mmRKNS2_8CIE_InfoEmRPNS2_20PrologInfoStackEntryEiPNS2_10PrologInfoE=uninstrumented
fun:_ZN9libunwind10CFI_ParserINS_17LocalAddressSpaceEE17parseInstructionsERS1_mmRKNS2_8CIE_InfoEmRPNS2_20PrologInfoStackEntryEiPNS2_10PrologInfoE=discard
fun:_ZN9libunwind10CFI_ParserINS_17LocalAddressSpaceEE20parseFDEInstructionsERS1_RKNS2_8FDE_InfoERKNS2_8CIE_InfoEmiPNS2_10PrologInfoE=uninstrumented
fun:_ZN9libunwind10CFI_ParserINS_17LocalAddressSpaceEE20parseFDEInstructionsERS1_RKNS2_8FDE_InfoERKNS2_8CIE_InfoEmiPNS2_10PrologInfoE=discard
fun:_ZN9libunwind10CFI_ParserINS_17LocalAddressSpaceEE7findFDEERS1_mmjmPNS2_8FDE_InfoEPNS2_8CIE_InfoE=uninstrumented
fun:_ZN9libunwind10CFI_ParserINS_17LocalAddressSpaceEE7findFDEERS1_mmjmPNS2_8FDE_InfoEPNS2_8CIE_InfoE=discard
fun:_ZN9libunwind10CFI_ParserINS_17LocalAddressSpaceEE8parseCIEERS1_mPNS2_8CIE_InfoE=uninstrumented
fun:_ZN9libunwind10CFI_ParserINS_17LocalAddressSpaceEE8parseCIEERS1_mPNS2_8CIE_InfoE=discard
fun:_ZN9libunwind10CFI_ParserINS_17LocalAddressSpaceEE9decodeFDEERS1_mPNS2_8FDE_InfoEPNS2_8CIE_InfoE=uninstrumented
fun:_ZN9libunwind10CFI_ParserINS_17LocalAddressSpaceEE9decodeFDEERS1_mPNS2_8FDE_InfoEPNS2_8CIE_InfoE=discard
fun:_ZN9libunwind12UnwindCursorINS_17LocalAddressSpaceENS_16Registers_x86_64EE11getFloatRegEi=uninstrumented
fun:_ZN9libunwind12UnwindCursorINS_17LocalAddressSpaceENS_16Registers_x86_64EE11getFloatRegEi=discard
fun:_ZN9libunwind12UnwindCursorINS_17LocalAddressSpaceENS_16Registers_x86_64EE11setFloatRegEid=uninstrumented
fun:_ZN9libunwind12UnwindCursorINS_17LocalAddressSpaceENS_16Registers_x86_64EE11setFloatRegEid=discard
fun:_ZN9libunwind12UnwindCursorINS_17LocalAddressSpaceENS_16Registers_x86_64EE13isSignalFrameEv=uninstrumented
fun:_ZN9libunwind12UnwindCursorINS_17LocalAddressSpaceENS_16Registers_x86_64EE13isSignalFrameEv=discard
fun:_ZN9libunwind12UnwindCursorINS_17LocalAddressSpaceENS_16Registers_x86_64EE13validFloatRegEi=uninstrumented
fun:_ZN9libunwind12UnwindCursorINS_17LocalAddressSpaceENS_16Registers_x86_64EE13validFloatRegEi=discard
fun:_ZN9libunwind12UnwindCursorINS_17LocalAddressSpaceENS_16Registers_x86_64EE15getFunctionNameEPcmPm=uninstrumented
fun:_ZN9libunwind12UnwindCursorINS_17LocalAddressSpaceENS_16Registers_x86_64EE15getFunctionNameEPcmPm=discard
fun:_ZN9libunwind12UnwindCursorINS_17LocalAddressSpaceENS_16Registers_x86_64EE15getRegisterNameEi=uninstrumented
fun:_ZN9libunwind12UnwindCursorINS_17LocalAddressSpaceENS_16Registers_x86_64EE15getRegisterNameEi=discard
fun:_ZN9libunwind12UnwindCursorINS_17LocalAddressSpaceENS_16Registers_x86_64EE16stepWithDwarfFDEEv=uninstrumented
fun:_ZN9libunwind12UnwindCursorINS_17LocalAddressSpaceENS_16Registers_x86_64EE16stepWithDwarfFDEEv=discard
fun:_ZN9libunwind12UnwindCursorINS_17LocalAddressSpaceENS_16Registers_x86_64EE23getInfoFromDwarfSectionEmRKNS_18UnwindInfoSectionsEj=uninstrumented
fun:_ZN9libunwind12UnwindCursorINS_17LocalAddressSpaceENS_16Registers_x86_64EE23getInfoFromDwarfSectionEmRKNS_18UnwindInfoSectionsEj=discard
fun:_ZN9libunwind12UnwindCursorINS_17LocalAddressSpaceENS_16Registers_x86_64EE24setInfoBasedOnIPRegisterEb=uninstrumented
fun:_ZN9libunwind12UnwindCursorINS_17LocalAddressSpaceENS_16Registers_x86_64EE24setInfoBasedOnIPRegisterEb=discard
fun:_ZN9libunwind12UnwindCursorINS_17LocalAddressSpaceENS_16Registers_x86_64EE4stepEv=uninstrumented
fun:_ZN9libunwind12UnwindCursorINS_17LocalAddressSpaceENS_16Registers_x86_64EE4stepEv=discard
fun:_ZN9libunwind12UnwindCursorINS_17LocalAddressSpaceENS_16Registers_x86_64EE6getRegEi=uninstrumented
fun:_ZN9libunwind12UnwindCursorINS_17LocalAddressSpaceENS_16Registers_x86_64EE6getRegEi=discard
fun:_ZN9libunwind12UnwindCursorINS_17LocalAddressSpaceENS_16Registers_x86_64EE6jumptoEv=uninstrumented
fun:_ZN9libunwind12UnwindCursorINS_17LocalAddressSpaceENS_16Registers_x86_64EE6jumptoEv=discard
fun:_ZN9libunwind12UnwindCursorINS_17LocalAddressSpaceENS_16Registers_x86_64EE6setRegEim=uninstrumented
fun:_ZN9libunwind12UnwindCursorINS_17LocalAddressSpaceENS_16Registers_x86_64EE6setRegEim=discard
fun:_ZN9libunwind12UnwindCursorINS_17LocalAddressSpaceENS_16Registers_x86_64EE7getInfoEP15unw_proc_info_t=uninstrumented
fun:_ZN9libunwind12UnwindCursorINS_17LocalAddressSpaceENS_16Registers_x86_64EE7getInfoEP15unw_proc_info_t=discard
fun:_ZN9libunwind12UnwindCursorINS_17LocalAddressSpaceENS_16Registers_x86_64EE8validRegEi=uninstrumented
fun:_ZN9libunwind12UnwindCursorINS_17LocalAddressSpaceENS_16Registers_x86_64EE8validRegEi=discard
fun:_ZN9libunwind12UnwindCursorINS_17LocalAddressSpaceENS_16Registers_x86_64EEC2EP13unw_context_tRS1_=uninstrumented
fun:_ZN9libunwind12UnwindCursorINS_17LocalAddressSpaceENS_16Registers_x86_64EEC2EP13unw_context_tRS1_=discard
fun:_ZN9libunwind12UnwindCursorINS_17LocalAddressSpaceENS_16Registers_x86_64EED0Ev=uninstrumented
fun:_ZN9libunwind12UnwindCursorINS_17LocalAddressSpaceENS_16Registers_x86_64EED0Ev=discard
fun:_ZN9libunwind12UnwindCursorINS_17LocalAddressSpaceENS_16Registers_x86_64EED2Ev=uninstrumented
fun:_ZN9libunwind12UnwindCursorINS_17LocalAddressSpaceENS_16Registers_x86_64EED2Ev=discard
fun:_ZN9libunwind12UnwindCursorINS_17LocalAddressSpaceENS_16Registers_x86_64EEnwEmPS3_=uninstrumented
fun:_ZN9libunwind12UnwindCursorINS_17LocalAddressSpaceENS_16Registers_x86_64EEnwEmPS3_=discard
fun:_ZN9libunwind13DwarfFDECacheINS_17LocalAddressSpaceEE11removeAllInEm=uninstrumented
fun:_ZN9libunwind13DwarfFDECacheINS_17LocalAddressSpaceEE11removeAllInEm=discard
fun:_ZN9libunwind13DwarfFDECacheINS_17LocalAddressSpaceEE19iterateCacheEntriesEPFvmmmmE=uninstrumented
fun:_ZN9libunwind13DwarfFDECacheINS_17LocalAddressSpaceEE19iterateCacheEntriesEPFvmmmmE=discard
fun:_ZN9libunwind13DwarfFDECacheINS_17LocalAddressSpaceEE3addEmmmm=uninstrumented
fun:_ZN9libunwind13DwarfFDECacheINS_17LocalAddressSpaceEE3addEmmmm=discard
fun:_ZN9libunwind13DwarfFDECacheINS_17LocalAddressSpaceEE7findFDEEmm=uninstrumented
fun:_ZN9libunwind13DwarfFDECacheINS_17LocalAddressSpaceEE7findFDEEmm=discard
fun:_ZN9libunwind14EHHeaderParserINS_17LocalAddressSpaceEE11decodeEHHdrERS1_mmRNS2_12EHHeaderInfoE=uninstrumented
fun:_ZN9libunwind14EHHeaderParserINS_17LocalAddressSpaceEE11decodeEHHdrERS1_mmRNS2_12EHHeaderInfoE=discard
fun:_ZN9libunwind14EHHeaderParserINS_17LocalAddressSpaceEE16decodeTableEntryERS1_RmmmhPNS_10CFI_ParserIS1_E8FDE_InfoEPNS6_8CIE_InfoE=uninstrumented
fun:_ZN9libunwind14EHHeaderParserINS_17LocalAddressSpaceEE16decodeTableEntryERS1_RmmmhPNS_10CFI_ParserIS1_E8FDE_InfoEPNS6_8CIE_InfoE=discard
fun:_ZN9libunwind14EHHeaderParserINS_17LocalAddressSpaceEE17getTableEntrySizeEh=uninstrumented
fun:_ZN9libunwind14EHHeaderParserINS_17LocalAddressSpaceEE17getTableEntrySizeEh=discard
fun:_ZN9libunwind14EHHeaderParserINS_17LocalAddressSpaceEE7findFDEERS1_mmjPNS_10CFI_ParserIS1_E8FDE_InfoEPNS5_8CIE_InfoE=uninstrumented
fun:_ZN9libunwind14EHHeaderParserINS_17LocalAddressSpaceEE7findFDEERS1_mmjPNS_10CFI_ParserIS1_E8FDE_InfoEPNS5_8CIE_InfoE=discard
fun:_ZN9libunwind16Registers_x86_6411setRegisterEim=uninstrumented
fun:_ZN9libunwind16Registers_x86_6411setRegisterEim=discard
fun:_ZN9libunwind16Registers_x86_6415getRegisterNameEi=uninstrumented
fun:_ZN9libunwind16Registers_x86_6415getRegisterNameEi=discard
fun:_ZN9libunwind16Registers_x86_6415lastDwarfRegNumEv=uninstrumented
fun:_ZN9libunwind16Registers_x86_6415lastDwarfRegNumEv=discard
fun:_ZN9libunwind16Registers_x86_6416setFloatRegisterEid=uninstrumented
fun:_ZN9libunwind16Registers_x86_6416setFloatRegisterEid=discard
fun:_ZN9libunwind16Registers_x86_6417setVectorRegisterEiNS_4v128E=uninstrumented
fun:_ZN9libunwind16Registers_x86_6417setVectorRegisterEiNS_4v128E=discard
fun:_ZN9libunwind16Registers_x86_645setIPEm=uninstrumented
fun:_ZN9libunwind16Registers_x86_645setIPEm=discard
fun:_ZN9libunwind16Registers_x86_645setSPEm=uninstrumented
fun:_ZN9libunwind16Registers_x86_645setSPEm=discard
fun:_ZN9libunwind16Registers_x86_646jumptoEv=uninstrumented
fun:_ZN9libunwind16Registers_x86_646jumptoEv=discard
fun:_ZN9libunwind16Registers_x86_647getArchEv=uninstrumented
fun:_ZN9libunwind16Registers_x86_647getArchEv=discard
fun:_ZN9libunwind16Registers_x86_64C2EPKv=uninstrumented
fun:_ZN9libunwind16Registers_x86_64C2EPKv=discard
fun:_ZN9libunwind16Registers_x86_64C2Ev=uninstrumented
fun:_ZN9libunwind16Registers_x86_64C2Ev=discard
fun:_ZN9libunwind17DwarfInstructionsINS_17LocalAddressSpaceENS_16Registers_x86_64EE13stepWithDwarfERS1_mmRS2_Rb=uninstrumented
fun:_ZN9libunwind17DwarfInstructionsINS_17LocalAddressSpaceENS_16Registers_x86_64EE13stepWithDwarfERS1_mmRS2_Rb=discard
fun:_ZN9libunwind17DwarfInstructionsINS_17LocalAddressSpaceENS_16Registers_x86_64EE16getSavedRegisterERS1_RKS2_mRKNS_10CFI_ParserIS1_E16RegisterLocationE=uninstrumented
fun:_ZN9libunwind17DwarfInstructionsINS_17LocalAddressSpaceENS_16Registers_x86_64EE16getSavedRegisterERS1_RKS2_mRKNS_10CFI_ParserIS1_E16RegisterLocationE=discard
fun:_ZN9libunwind17DwarfInstructionsINS_17LocalAddressSpaceENS_16Registers_x86_64EE18evaluateExpressionEmRS1_RKS2_m=uninstrumented
fun:_ZN9libunwind17DwarfInstructionsINS_17LocalAddressSpaceENS_16Registers_x86_64EE18evaluateExpressionEmRS1_RKS2_m=discard
fun:_ZN9libunwind17DwarfInstructionsINS_17LocalAddressSpaceENS_16Registers_x86_64EE21getSavedFloatRegisterERS1_RKS2_mRKNS_10CFI_ParserIS1_E16RegisterLocationE=uninstrumented
fun:_ZN9libunwind17DwarfInstructionsINS_17LocalAddressSpaceENS_16Registers_x86_64EE21getSavedFloatRegisterERS1_RKS2_mRKNS_10CFI_ParserIS1_E16RegisterLocationE=discard
fun:_ZN9libunwind17DwarfInstructionsINS_17LocalAddressSpaceENS_16Registers_x86_64EE22getSavedVectorRegisterERS1_RKS2_mRKNS_10CFI_ParserIS1_E16RegisterLocationE=uninstrumented
fun:_ZN9libunwind17DwarfInstructionsINS_17LocalAddressSpaceENS_16Registers_x86_64EE22getSavedVectorRegisterERS1_RKS2_mRKNS_10CFI_ParserIS1_E16RegisterLocationE=discard
fun:_ZN9libunwind17DwarfInstructionsINS_17LocalAddressSpaceENS_16Registers_x86_64EE6getCFAERS1_RKNS_10CFI_ParserIS1_E10PrologInfoERKS2_=uninstrumented
fun:_ZN9libunwind17DwarfInstructionsINS_17LocalAddressSpaceENS_16Registers_x86_64EE6getCFAERS1_RKNS_10CFI_ParserIS1_E10PrologInfoERKS2_=discard
fun:_ZN9libunwind17LocalAddressSpace10getSLEB128ERmm=uninstrumented
fun:_ZN9libunwind17LocalAddressSpace10getSLEB128ERmm=discard
fun:_ZN9libunwind17LocalAddressSpace10getULEB128ERmm=uninstrumented
fun:_ZN9libunwind17LocalAddressSpace10getULEB128ERmm=discard
fun:_ZN9libunwind17LocalAddressSpace11getEncodedPERmmhm=uninstrumented
fun:_ZN9libunwind17LocalAddressSpace11getEncodedPERmmhm=discard
fun:_ZN9libunwind17LocalAddressSpace11getRegisterEm=uninstrumented
fun:_ZN9libunwind17LocalAddressSpace11getRegisterEm=discard
fun:_ZN9libunwind17LocalAddressSpace12findOtherFDEEmRm=uninstrumented
fun:_ZN9libunwind17LocalAddressSpace12findOtherFDEEmRm=discard
fun:_ZN9libunwind17LocalAddressSpace16findFunctionNameEmPcmPm=uninstrumented
fun:_ZN9libunwind17LocalAddressSpace16findFunctionNameEmPcmPm=discard
fun:_ZN9libunwind17LocalAddressSpace18findUnwindSectionsEmRNS_18UnwindInfoSectionsE=uninstrumented
fun:_ZN9libunwind17LocalAddressSpace18findUnwindSectionsEmRNS_18UnwindInfoSectionsE=discard
fun:_ZN9libunwind17LocalAddressSpace4get8Em=uninstrumented
fun:_ZN9libunwind17LocalAddressSpace4get8Em=discard
fun:_ZN9libunwind17LocalAddressSpace4getPEm=uninstrumented
fun:_ZN9libunwind17LocalAddressSpace4getPEm=discard
fun:_ZN9libunwind17LocalAddressSpace5get16Em=uninstrumented
fun:_ZN9libunwind17LocalAddressSpace5get16Em=discard
fun:_ZN9libunwind17LocalAddressSpace5get32Em=uninstrumented
fun:_ZN9libunwind17LocalAddressSpace5get32Em=discard
fun:_ZN9libunwind17LocalAddressSpace5get64Em=uninstrumented
fun:_ZN9libunwind17LocalAddressSpace5get64Em=discard
fun:_ZN9libunwind17LocalAddressSpace9getDoubleEm=uninstrumented
fun:_ZN9libunwind17LocalAddressSpace9getDoubleEm=discard
fun:_ZN9libunwind17LocalAddressSpace9getVectorEm=uninstrumented
fun:_ZN9libunwind17LocalAddressSpace9getVectorEm=discard
fun:_ZN9libunwind20AbstractUnwindCursor11getFloatRegEi=uninstrumented
fun:_ZN9libunwind20AbstractUnwindCursor11getFloatRegEi=discard
fun:_ZN9libunwind20AbstractUnwindCursor11setFloatRegEid=uninstrumented
fun:_ZN9libunwind20AbstractUnwindCursor11setFloatRegEid=discard
fun:_ZN9libunwind20AbstractUnwindCursor13isSignalFrameEv=uninstrumented
fun:_ZN9libunwind20AbstractUnwindCursor13isSignalFrameEv=discard
fun:_ZN9libunwind20AbstractUnwindCursor13validFloatRegEi=uninstrumented
fun:_ZN9libunwind20AbstractUnwindCursor13validFloatRegEi=discard
fun:_ZN9libunwind20AbstractUnwindCursor15getFunctionNameEPcmPm=uninstrumented
fun:_ZN9libunwind20AbstractUnwindCursor15getFunctionNameEPcmPm=discard
fun:_ZN9libunwind20AbstractUnwindCursor15getRegisterNameEi=uninstrumented
fun:_ZN9libunwind20AbstractUnwindCursor15getRegisterNameEi=discard
fun:_ZN9libunwind20AbstractUnwindCursor24setInfoBasedOnIPRegisterEb=uninstrumented
fun:_ZN9libunwind20AbstractUnwindCursor24setInfoBasedOnIPRegisterEb=discard
fun:_ZN9libunwind20AbstractUnwindCursor4stepEv=uninstrumented
fun:_ZN9libunwind20AbstractUnwindCursor4stepEv=discard
fun:_ZN9libunwind20AbstractUnwindCursor6getRegEi=uninstrumented
fun:_ZN9libunwind20AbstractUnwindCursor6getRegEi=discard
fun:_ZN9libunwind20AbstractUnwindCursor6jumptoEv=uninstrumented
fun:_ZN9libunwind20AbstractUnwindCursor6jumptoEv=discard
fun:_ZN9libunwind20AbstractUnwindCursor6setRegEim=uninstrumented
fun:_ZN9libunwind20AbstractUnwindCursor6setRegEim=discard
fun:_ZN9libunwind20AbstractUnwindCursor7getInfoEP15unw_proc_info_t=uninstrumented
fun:_ZN9libunwind20AbstractUnwindCursor7getInfoEP15unw_proc_info_t=discard
fun:_ZN9libunwind20AbstractUnwindCursor8validRegEi=uninstrumented
fun:_ZN9libunwind20AbstractUnwindCursor8validRegEi=discard
fun:_ZN9libunwind20AbstractUnwindCursorC2Ev=uninstrumented
fun:_ZN9libunwind20AbstractUnwindCursorC2Ev=discard
fun:_ZN9libunwind20AbstractUnwindCursorD0Ev=uninstrumented
fun:_ZN9libunwind20AbstractUnwindCursorD0Ev=discard
fun:_ZN9libunwind20AbstractUnwindCursorD2Ev=uninstrumented
fun:_ZN9libunwind20AbstractUnwindCursorD2Ev=discard
fun:_ZN9libunwind20AbstractUnwindCursordlEPvm=uninstrumented
fun:_ZN9libunwind20AbstractUnwindCursordlEPvm=discard
fun:_ZN9libunwind7RWMutex11lock_sharedEv=uninstrumented
fun:_ZN9libunwind7RWMutex11lock_sharedEv=discard
fun:_ZN9libunwind7RWMutex13unlock_sharedEv=uninstrumented
fun:_ZN9libunwind7RWMutex13unlock_sharedEv=discard
fun:_ZN9libunwind7RWMutex4lockEv=uninstrumented
fun:_ZN9libunwind7RWMutex4lockEv=discard
fun:_ZN9libunwind7RWMutex6unlockEv=uninstrumented
fun:_ZN9libunwind7RWMutex6unlockEv=discard
fun:_ZNK9libunwind12UnwindCursorINS_17LocalAddressSpaceENS_16Registers_x86_64EE13dwarfEncodingERS2_=uninstrumented
fun:_ZNK9libunwind12UnwindCursorINS_17LocalAddressSpaceENS_16Registers_x86_64EE13dwarfEncodingERS2_=discard
fun:_ZNK9libunwind12UnwindCursorINS_17LocalAddressSpaceENS_16Registers_x86_64EE13dwarfEncodingEv=uninstrumented
fun:_ZNK9libunwind12UnwindCursorINS_17LocalAddressSpaceENS_16Registers_x86_64EE13dwarfEncodingEv=discard
fun:_ZNK9libunwind16Registers_x86_6411getRegisterEi=uninstrumented
fun:_ZNK9libunwind16Registers_x86_6411getRegisterEi=discard
fun:_ZNK9libunwind16Registers_x86_6413validRegisterEi=uninstrumented
fun:_ZNK9libunwind16Registers_x86_6413validRegisterEi=discard
fun:_ZNK9libunwind16Registers_x86_6416getFloatRegisterEi=uninstrumented
fun:_ZNK9libunwind16Registers_x86_6416getFloatRegisterEi=discard
fun:_ZNK9libunwind16Registers_x86_6418validFloatRegisterEi=uninstrumented
fun:_ZNK9libunwind16Registers_x86_6418validFloatRegisterEi=discard
fun:_ZNK9libunwind16Registers_x86_6419validVectorRegisterEi=uninstrumented
fun:_ZNK9libunwind16Registers_x86_6419validVectorRegisterEi=discard
fun:_ZZN9libunwind17LocalAddressSpace18findUnwindSectionsEmRNS_18UnwindInfoSectionsEENKUlP12dl_phdr_infomPvE_clES4_mS5_=uninstrumented
fun:_ZZN9libunwind17LocalAddressSpace18findUnwindSectionsEmRNS_18UnwindInfoSectionsEENKUlP12dl_phdr_infomPvE_clES4_mS5_=discard
fun:_ZZN9libunwind17LocalAddressSpace18findUnwindSectionsEmRNS_18UnwindInfoSectionsEENKUlP12dl_phdr_infomPvE_cvPFiS4_mS5_EEv=uninstrumented
fun:_ZZN9libunwind17LocalAddressSpace18findUnwindSectionsEmRNS_18UnwindInfoSectionsEENKUlP12dl_phdr_infomPvE_cvPFiS4_mS5_EEv=discard
fun:_ZZN9libunwind17LocalAddressSpace18findUnwindSectionsEmRNS_18UnwindInfoSectionsEENUlP12dl_phdr_infomPvE_8__invokeES4_mS5_=uninstrumented
fun:_ZZN9libunwind17LocalAddressSpace18findUnwindSectionsEmRNS_18UnwindInfoSectionsEENUlP12dl_phdr_infomPvE_8__invokeES4_mS5_=discard
fun:__deregister_frame=uninstrumented
fun:__deregister_frame=discard
fun:__deregister_frame_info=uninstrumented
fun:__deregister_frame_info=discard
fun:__deregister_frame_info_bases=uninstrumented
fun:__deregister_frame_info_bases=discard
fun:__register_frame=uninstrumented
fun:__register_frame=discard
fun:__register_frame_info=uninstrumented
fun:__register_frame_info=discard
fun:__register_frame_info_bases=uninstrumented
fun:__register_frame_info_bases=discard
fun:__register_frame_info_table=uninstrumented
fun:__register_frame_info_table=discard
fun:__register_frame_info_table_bases=uninstrumented
fun:__register_frame_info_table_bases=discard
fun:__register_frame_table=uninstrumented
fun:__register_frame_table=discard
fun:__unw_add_dynamic_fde=uninstrumented
fun:__unw_add_dynamic_fde=discard
fun:__unw_get_fpreg=uninstrumented
fun:__unw_get_fpreg=discard
fun:__unw_get_proc_info=uninstrumented
fun:__unw_get_proc_info=discard
fun:__unw_get_proc_name=uninstrumented
fun:__unw_get_proc_name=discard
fun:__unw_get_reg=uninstrumented
fun:__unw_get_reg=discard
fun:__unw_getcontext=uninstrumented
fun:__unw_getcontext=discard
fun:__unw_init_local=uninstrumented
fun:__unw_init_local=discard
fun:__unw_is_fpreg=uninstrumented
fun:__unw_is_fpreg=discard
fun:__unw_is_signal_frame=uninstrumented
fun:__unw_is_signal_frame=discard
fun:__unw_iterate_dwarf_unwind_cache=uninstrumented
fun:__unw_iterate_dwarf_unwind_cache=discard
fun:__unw_regname=uninstrumented
fun:__unw_regname=discard
fun:__unw_remove_dynamic_fde=uninstrumented
fun:__unw_remove_dynamic_fde=discard
fun:__unw_resume=uninstrumented
fun:__unw_resume=discard
fun:__unw_set_fpreg=uninstrumented
fun:__unw_set_fpreg=discard
fun:__unw_set_reg=uninstrumented
fun:__unw_set_reg=discard
fun:__unw_step=uninstrumented
fun:__unw_step=discard
fun:logAPIs=uninstrumented
fun:logAPIs=discard
fun:logDWARF=uninstrumented
fun:logDWARF=discard
fun:logUnwinding=uninstrumented
fun:logUnwinding=discard
fun:unw_get_fpreg=uninstrumented
fun:unw_get_fpreg=discard
fun:unw_get_proc_info=uninstrumented
fun:unw_get_proc_info=discard
fun:unw_get_proc_name=uninstrumented
fun:unw_get_proc_name=discard
fun:unw_get_reg=uninstrumented
fun:unw_get_reg=discard
fun:unw_getcontext=uninstrumented
fun:unw_getcontext=discard
fun:unw_init_local=uninstrumented
fun:unw_init_local=discard
fun:unw_is_fpreg=uninstrumented
fun:unw_is_fpreg=discard
fun:unw_is_signal_frame=uninstrumented
fun:unw_is_signal_frame=discard
fun:unw_iterate_dwarf_unwind_cache=uninstrumented
fun:unw_iterate_dwarf_unwind_cache=discard
fun:unw_regname=uninstrumented
fun:unw_regname=discard
fun:unw_resume=uninstrumented
fun:unw_resume=discard
fun:unw_set_fpreg=uninstrumented
fun:unw_set_fpreg=discard
fun:unw_set_reg=uninstrumented
fun:unw_set_reg=discard
fun:unw_step=uninstrumented
fun:unw_step=discard
